target datalayout = "e-m:e-p270:32:32-p271:32:32-p272:64:64-i64:64-i128:128-f80:128-n8:16:32:64-S128"
target triple = "x86_64-pc-linux-gnu"

%struct.bignum_st = type { ptr, i32, i32, i32, i32 }

; Function Attrs: nounwind uwtable
define internal i64 @bn_get_bits(ptr noundef %0, i32 noundef %1) #0 {
  %3 = alloca ptr, align 8
  %4 = alloca i32, align 4
  %5 = alloca i64, align 8
  %6 = alloca i32, align 4
  store ptr %0, ptr %3, align 8, !tbaa !3
  store i32 %1, ptr %4, align 4, !tbaa !10
  call void @llvm.lifetime.start.p0(i64 8, ptr %5) #5
  store i64 0, ptr %5, align 8, !tbaa !19
  call void @llvm.lifetime.start.p0(i64 4, ptr %6) #5
  %7 = load i32, ptr %4, align 4, !tbaa !10
  %8 = sdiv i32 %7, 64
  store i32 %8, ptr %6, align 4, !tbaa !10
  %9 = load i32, ptr %4, align 4, !tbaa !10
  %10 = srem i32 %9, 64
  store i32 %10, ptr %4, align 4, !tbaa !10
  %11 = load i32, ptr %6, align 4, !tbaa !10
  %12 = icmp sge i32 %11, 0
  br i1 %12, label %13, label %57

13:                                               ; preds = %2
  %14 = load i32, ptr %6, align 4, !tbaa !10
  %15 = load ptr, ptr %3, align 8, !tbaa !3
  %16 = getelementptr inbounds nuw %struct.bignum_st, ptr %15, i32 0, i32 1
  %17 = load i32, ptr %16, align 8, !tbaa !14
  %18 = icmp slt i32 %14, %17
  br i1 %18, label %19, label %57

19:                                               ; preds = %13
  %20 = load ptr, ptr %3, align 8, !tbaa !3
  %21 = getelementptr inbounds nuw %struct.bignum_st, ptr %20, i32 0, i32 0
  %22 = load ptr, ptr %21, align 8, !tbaa !18
  %23 = load i32, ptr %6, align 4, !tbaa !10
  %24 = sext i32 %23 to i64
  %25 = getelementptr inbounds i64, ptr %22, i64 %24
  %26 = load i64, ptr %25, align 8, !tbaa !19
  %27 = and i64 %26, -1
  store i64 %27, ptr %5, align 8, !tbaa !19
  %28 = load i32, ptr %4, align 4, !tbaa !10
  %29 = icmp ne i32 %28, 0
  br i1 %29, label %30, label %56

30:                                               ; preds = %19
  %31 = load i32, ptr %4, align 4, !tbaa !10
  %32 = load i64, ptr %5, align 8, !tbaa !19
  %33 = zext i32 %31 to i64
  %34 = lshr i64 %32, %33
  store i64 %34, ptr %5, align 8, !tbaa !19
  %35 = load i32, ptr %6, align 4, !tbaa !10
  %36 = add nsw i32 %35, 1
  store i32 %36, ptr %6, align 4, !tbaa !10
  %37 = load ptr, ptr %3, align 8, !tbaa !3
  %38 = getelementptr inbounds nuw %struct.bignum_st, ptr %37, i32 0, i32 1
  %39 = load i32, ptr %38, align 8, !tbaa !14
  %40 = icmp slt i32 %36, %39
  br i1 %40, label %41, label %55

41:                                               ; preds = %30
  %42 = load ptr, ptr %3, align 8, !tbaa !3
  %43 = getelementptr inbounds nuw %struct.bignum_st, ptr %42, i32 0, i32 0
  %44 = load ptr, ptr %43, align 8, !tbaa !18
  %45 = load i32, ptr %6, align 4, !tbaa !10
  %46 = sext i32 %45 to i64
  %47 = getelementptr inbounds i64, ptr %44, i64 %46
  %48 = load i64, ptr %47, align 8, !tbaa !19
  %49 = load i32, ptr %4, align 4, !tbaa !10
  %50 = sub nsw i32 64, %49
  %51 = zext i32 %50 to i64
  %52 = shl i64 %48, %51
  %53 = load i64, ptr %5, align 8, !tbaa !19
  %54 = or i64 %53, %52
  store i64 %54, ptr %5, align 8, !tbaa !19
  br label %55

55:                                               ; preds = %41, %30
  br label %56

56:                                               ; preds = %55, %19
  br label %57

57:                                               ; preds = %56, %13, %2
  %58 = load i64, ptr %5, align 8, !tbaa !19
  %59 = and i64 %58, -1
  call void @llvm.lifetime.end.p0(i64 4, ptr %6) #5
  call void @llvm.lifetime.end.p0(i64 8, ptr %5) #5
  ret i64 %59
}