; Function Attrs: mustprogress nofree norecurse nosync nounwind willreturn memory(read, inaccessiblemem: none) uwtable
define internal fastcc i64 @bn_get_bits(ptr noundef readonly captures(none) %0, i32 noundef %1) unnamed_addr #4 {
  %3 = sdiv i32 %1, 64
  %4 = srem i32 %1, 64
  %5 = icmp sgt i32 %1, -64
  br i1 %5, label %6, label %28

6:                                                ; preds = %2
  %7 = getelementptr inbounds nuw i8, ptr %0, i64 8
  %8 = load i32, ptr %7, align 8, !tbaa !5
  %9 = icmp slt i32 %3, %8
  br i1 %9, label %10, label %28

10:                                               ; preds = %6
  %11 = load ptr, ptr %0, align 8, !tbaa !13
  %12 = zext nneg i32 %3 to i64
  %13 = getelementptr inbounds nuw i64, ptr %11, i64 %12
  %14 = load i64, ptr %13, align 8, !tbaa !14
  %.not = icmp eq i32 %4, 0
  br i1 %.not, label %28, label %15

15:                                               ; preds = %10
  %16 = zext nneg i32 %4 to i64
  %17 = lshr i64 %14, %16
  %18 = add nuw nsw i32 %3, 1
  %19 = icmp slt i32 %18, %8
  br i1 %19, label %20, label %28

20:                                               ; preds = %15
  %21 = zext nneg i32 %18 to i64
  %22 = getelementptr inbounds nuw i64, ptr %11, i64 %21
  %23 = load i64, ptr %22, align 8, !tbaa !14
  %24 = sub nsw i32 64, %4
  %25 = zext nneg i32 %24 to i64
  %26 = shl i64 %23, %25
  %27 = or i64 %26, %17
  br label %28

28:                                               ; preds = %10, %20, %15, %6, %2
  %.0 = phi i64 [ %27, %20 ], [ %17, %15 ], [ %14, %10 ], [ 0, %6 ], [ 0, %2 ]
  ret i64 %.0
}